ccopy_reg
_reconstructor
p1
(ctensorflow.contrib.learn.python.learn.preprocessing.text
VocabularyProcessor
p2
c__builtin__
object
p3
NtRp4
(dp5
S'vocabulary_'
p6
g1
(ctensorflow.contrib.learn.python.learn.preprocessing.categorical_vocabulary
CategoricalVocabulary
p7
g3
NtRp8
(dp9
S'_freeze'
p10
I01
sS'_unknown_token'
p11
S'<UNK>'
p12
sS'_support_reverse'
p13
I01
sS'_freq'
p14
ccollections
defaultdict
p15
(c__builtin__
int
p16
tRp17
S'\xe8\xba'
p18
I12
sS'002275'
p19
I1
sS'\xe8\xb9'
p20
I4
sS'\xe8\xbe'
p21
I17
sS'\xe8\xbd'
p22
I88
sS'yorkshir'
p23
I1
sS'\xe8\xb5'
p24
I222
sS'gg'
p25
I1
sS'\xe6\xbc\xb2\xe6\xbc\xb2'
p26
I1
sS'7000'
p27
I1
sS'go'
p28
I3
sS'198'
p29
I1
sS'76808'
p30
I2
sS'\xbe\xe4\xbc'
p31
I1
sS'tt'
p32
I1
sS'78319'
p33
I1
sS'68030'
p34
I1
sS'66777'
p35
I1
sS'0'
I9
sS'67593227'
p36
I1
sS'4375'
p37
I1
sS'\xbd\xe4\xba'
p38
I4
sS'2881388'
p39
I1
sS'\xbd\xe4\xb9'
p40
I1
sS'113655799'
p41
I1
sS'43555855'
p42
I1
sS'715'
p43
I1
sS'qfii'
p44
I1
sS'600153'
p45
I1
sS'300496'
p46
I1
sS'600156'
p47
I1
sS'600157'
p48
I1
sS'600155'
p49
I1
sS'1709'
p50
I2
sS'600158'
p51
I1
sS'600159'
p52
I1
sS'300499'
p53
I4
sS'\xe4\xba\xb2'
p54
I2
sS'470442'
p55
I2
sS'birstal'
p56
I1
sS'\xe4\xba\xba'
p57
I95
sS'\xe5\xbc\xba'
p58
I8
sS'\xe5\xbc\xb9'
p59
I3
sS'10o'
p60
I1
sS'197'
p61
I1
sS'190'
p62
I2
sS'193'
p63
I1
sS'74537'
p64
I1
sS'276'
p65
I1
sS'3147'
p66
I1
sS'6359'
p67
I1
sS'3675'
p68
I1
sS'diao'
p69
I1
sS'\xe5\xb9\xb2\xe5'
p70
I1
sS'\xe5\xbc\xba\xe8'
p71
I3
sS'3029'
p72
I1
sS'\xe5\xbc\xba\xe5'
p73
I8
sS'\xe5\xbc\xba\xe7'
p74
I2
sS'3021'
p75
I1
sS'520'
p76
I1
sS'67985151'
p77
I1
sS'7885'
p78
I1
sS'5001'
p79
I1
sS'5000'
p80
I5
sS'1338'
p81
I4
sS'60021614'
p82
I1
sS'4908'
p83
I1
sS'\xb3\xe4\xbd'
p84
I1
sS'9254'
p85
I1
sS'\xb3\xe4\xba'
p86
I1
sS'\xd0'
I4
sS'99niu'
p87
I2
sS'\xe4\xba\xba\xe7\xbc'
p88
I1
sS'103'
p89
I1
sS'100'
p90
I15
sS'101'
p91
I1
sS'107'
p92
I2
sS'105'
p93
I1
sS'900'
p94
I1
sS'38'
p95
I5
sS'33'
p96
I3
sS'31'
p97
I1
sS'30'
p98
I20
sS'37'
p99
I3
sS'35'
p100
I2
sS'438'
p101
I1
sS'1530'
p102
I1
sS'3939360'
p103
I1
sS'7848498'
p104
I1
sS'moyin1018'
p105
I1
sS'3804'
p106
I2
sS'app'
p107
I4
sS'ipo'
p108
I2
sS'msci'
p109
I2
sS'14333313'
p110
I1
sS'34617'
p111
I2
sS'7787'
p112
I1
sS'1900'
p113
I1
sS'3408933'
p114
I1
sS'855'
p115
I1
sS'5709'
p116
I1
sS'0501'
p117
I1
sS'6'
I4
sS'\xba\xe8'
p118
I18
sS'\xba\xe9'
p119
I12
sS'90051745'
p120
I1
sS'\xba\xe4'
p121
I13
sS'\xba\xe5'
p122
I36
sS'\xba\xe6'
p123
I39
sS'\xba\xe7'
p124
I11
sS'88315716'
p125
I1
sS'87920261'
p126
I1
sS'300511'
p127
I1
sS'98'
p128
I1
sS'6611'
p129
I1
sS'\xb5\xe4'
p130
I1
sS'91'
p131
I1
sS'90'
p132
I14
sS'93'
p133
I1
sS'92'
p134
I5
sS'94'
p135
I1
sS'97'
p136
I1
sS'96'
p137
I2
sS'20097217'
p138
I1
sS'032054283'
p139
I2
sS'31556858'
p140
I1
sS'v'
I8
sS'238'
p141
I1
sS'16749565'
p142
I1
sS'0397'
p143
I1
sS'52355354'
p144
I1
sS'4360'
p145
I1
sS'6894'
p146
I1
sS'32329932'
p147
I2
sS'230'
p148
I1
sS'231'
p149
I1
sS'002796'
p150
I1
sS'233'
p151
I1
sS'\xe4\xbd\xb3\xe4'
p152
I1
sS'2224'
p153
I1
sS'\xe4\xbd\xb3\xe8'
p154
I1
sS'1'
I10
sS'0895'
p155
I1
sS'\xe6\xb2\xb3\xe8'
p156
I3
sS'\xaa\xe7\xbe'
p157
I1
sS'\xcb'
I1
sS'\xe7\xbc\xba\xe7'
p158
I1
sS'\xe7\xbc\xba\xe5'
p159
I2
sS'145'
p160
I1
sS'4315'
p161
I1
sS'140'
p162
I1
sS'\xe5\xaa'
p163
I3
sS'\xb5\xe4\xb9'
p164
I1
sS'\xe7\xbc\xba\xe9'
p165
I2
sS'\xe5\xbd'
p166
I31
sS'\xe5\xbc'
p167
I117
sS'\xe5\xbe'
p168
I80
sS'\xe5\xb9'
p169
I84
sS'\xe5\xba'
p170
I104
sS'1887'
p171
I1
sS'\xe5\xb3'
p172
I1
sS'\xe5\xb2'
p173
I4
sS'\xbe\xe8'
p174
I34
sS'\xe6'
I3898
sS'\xaa\xe8\xbd'
p175
I1
sS'4666'
p176
I3
sS'st'
p177
I1
sS'mark'
p178
I1
sS'1450637'
p179
I1
sS'sb'
p180
I1
sS'11532028'
p181
I1
sS'2717'
p182
I1
sS'14333293'
p183
I1
sS'\xb3\xe7\xb3'
p184
I7
sS'9633012'
p185
I1
sS'\xbd\xe5'
p186
I44
sS'\xbd\xe4'
p187
I3
sS'\xbd\xe7'
p188
I11
sS'\xbd\xe6'
p189
I24
sS'136'
p190
I1
sS'135'
p191
I1
sS'134'
p192
I1
sS'\xe4\xba\xba\xe9'
p193
I1
sS'\xbd\xe9'
p194
I4
sS'\xbd\xe8'
p195
I12
sS'24'
p196
I5
sS'25'
p197
I15
sS'26'
p198
I38
sS'27'
p199
I4
sS'20'
p200
I39
sS'21'
p201
I7
sS'22'
p202
I6
sS'23'
p203
I10
sS'\xe7\xb2\xbe'
p204
I1
sS'96597106'
p205
I1
sS'5624'
p206
I1
sS'28'
p207
I4
sS'\xe5\xb9\xb3\xe5'
p208
I7
sS'\xe6\xb2\xb3'
p209
I1
sS'\xe4\xba\xb2\xe7'
p210
I1
sS'2019'
p211
I1
sS'400'
p212
I2
sS'2015'
p213
I5
sS'\xe6\xb2\xb9'
p214
I3
sS'2016'
p215
I15
sS'\xe6\xb2\xbe'
p216
I1
sS'2013'
p217
I1
sS'2012'
p218
I1
sS'002560'
p219
I1
sS'2630686'
p220
I2
sS'08691'
p221
I1
sS'158'
p222
I1
sS'98190191'
p223
I1
sS'\xbe\xe5\xbe'
p224
I2
sS'667788'
p225
I1
sS'\xbe\xe5\xbc'
p226
I9
sS'15558064158qq'
p227
I3
sS'\xbe\xe5\xba'
p228
I2
sS'\xe8\xbe\xbe\xe5'
p229
I4
sS'\xe7'
I2389
sS'\xbe\xe5\xb9'
p230
I1
sS'\xe7\xbc\xba\xe5\xbe'
p231
I1
sS'sz39'
p232
I1
sS'\xbe\xe5\xb2'
p233
I1
sS'0123'
p234
I1
sS'7099'
p235
I1
sS'15842872'
p236
I1
sS'2b'
p237
I1
sS'0728'
p238
I1
sS'53132316'
p239
I1
sS'3848'
p240
I1
sS'pao'
p241
I2
sS'\xbc\xe9\xbe'
p242
I1
sS'7630686'
p243
I2
sS'31729638'
p244
I1
sS'88'
p245
I5
sS'89'
p246
I1
sS'\xb3\xe4\xba\xba'
p247
I1
sS'82'
p248
I3
sS'83'
p249
I4
sS'80'
p250
I13
sS'\xe6\xbc\xb2'
p251
I1
sS'86'
p252
I2
sS'87'
p253
I2
sS'84'
p254
I1
sS'85'
p255
I2
sS'rt'
p256
I2
sS'4316'
p257
I1
sS'300484'
p258
I2
sS'\xc6'
I3
sS'2995'
p259
I1
sS'7'
I9
sS'\xbc'
I83
sS'85970'
p260
I1
sS'28222887'
p261
I1
sS'1231321'
p262
I1
sS'\xe4\xba\xb2\xe4\xba\xba'
p263
I1
sS'\xe6\xb2\xbe\xe7'
p264
I1
sS'0061950207'
p265
I3
sS'2830'
p266
I1
sS'\xba\xe4\xbc'
p267
I16
sS'\xba\xe4\xbe'
p268
I1
sS'1w'
p269
I1
sS'3015'
p270
I2
sS'62'
p271
I3
sS'436934'
p272
I1
sS'56611'
p273
I1
sS'\xe6\xb5\xaa'
p274
I28
sS'1000'
p275
I4
sS'5693003'
p276
I1
sS'\xe5\xbe\xbd'
p277
I3
sS'4435'
p278
I1
sS'0058'
p279
I1
sS'178'
p280
I1
sS'kuai'
p281
I1
sS'pokemon'
p282
I2
sS'sh00'
p283
I1
sS'\xe7\xbe\xbd'
p284
I1
sS'28300034'
p285
I1
sS'\xe5\xbd\xaa\xe5\xbd\xaa'
p286
I6
sS'6286'
p287
I1
sS'1500'
p288
I1
sS'2118'
p289
I1
sS'180'
p290
I1
sS'2'
I4
sS'3705'
p291
I1
sS'\xbd'
I241
sS'2624'
p292
I1
sS'\xcd'
I1
sS'9583'
p293
I1
sS'3524'
p294
I1
sS'5895'
p295
I1
sS'80691007'
p296
I1
sS'17w'
p297
I1
sS'5100'
p298
I2
sS'9233'
p299
I1
sS'11'
p300
I5
sS'10'
p301
I1
sS'13'
p302
I4
sS'b'
I6
sS'15'
p303
I23
sS'14'
p304
I8
sS'17'
p305
I9
sS'16'
p306
I8
sS'19'
p307
I8
sS'18'
p308
I34
sS'15319'
p309
I2
sS'5714'
p310
I1
sS'\xb2\xe4'
p311
I1
sS'\xb2\xe5'
p312
I12
sS'\xb2\xe6'
p313
I5
sS'\xb2\xe7'
p314
I24
sS'02389'
p315
I1
sS'028371'
p316
I1
sS'\xb2\xe8'
p317
I13
sS'\xb2\xe9'
p318
I2
sS'\xb9\xe8\xb5'
p319
I2
sS'\xe6\xb2'
p320
I68
sS'\xe6\xb3'
p321
I57
sS'\xe6\xb5'
p322
I224
sS'\xe6\xb9'
p323
I1
sS'\xe6\xba'
p324
I9
sS'\xe6\xbc'
p325
I6
sS'\xe6\xbd'
p326
I7
sS'\xe6\xbe'
p327
I20
sS'\xe4\xbc\xbc'
p328
I3
sS'9058'
p329
I2
sS'300446'
p330
I1
sS'\xbd\xe6\xbc\xb2'
p331
I1
sS'4000'
p332
I1
sS'31556868'
p333
I1
sS'1611'
p334
I1
sS'8848'
p335
I1
sS'\xb2'
I53
sS'34478209'
p336
I1
sS'002786'
p337
I1
sS'65319'
p338
I2
sS'2695013158'
p339
I1
sS'76'
p340
I3
sS'75'
p341
I5
sS'01'
p342
I3
sS'72'
p343
I2
sS'71'
p344
I1
sS'70'
p345
I4
sS'79'
p346
I1
sS'78'
p347
I5
sS'600522'
p348
I1
sS'\xe2'
I9
sS'20160122'
p349
I1
sS'20160125'
p350
I1
sS'20160126'
p351
I1
sS'6135'
p352
I1
sS'\xe5\xb9\xb2\xe4'
p353
I3
sS'\xaa\xe4\xbc'
p354
I1
sS'\xe5\xb9\xb2\xe6'
p355
I1
sS'\xaa\xe4\xb9'
p356
I1
sS'sh600036'
p357
I1
sS'8886'
p358
I1
sS'2614063'
p359
I1
sS'\xe7\xba\xaa'
p360
I3
sS'664'
p361
I1
sS'1265'
p362
I1
sS'12q'
p363
I1
sS'\xb9\xe5\xba'
p364
I1
sS'\xb9\xe5\xbc'
p365
I2
sS'\xba\xe5\xba'
p366
I2
sS'\xe7\xba\xb5'
p367
I1
sS'\xe7\xba\xb3'
p368
I1
sS'\xe6\xb2\xaa\xe5'
p369
I1
sS'\xba\xe4\xba\xba\xe6'
p370
I1
sS'feng'
p371
I1
sS'002776'
p372
I1
sS'26178'
p373
I1
sS'\xb3'
I110
sS'\xb5\xe9'
p374
I1
sS'\xb5\xe8'
p375
I20
sS'\xe8\xba\xb2'
p376
I1
sS'\xb5\xe5'
p377
I18
sS'8'
I1
sS'\xb5\xe7'
p378
I2
sS'\xb5\xe6'
p379
I7
sS'1316'
p380
I1
sS'093'
p381
I1
sS'fittim'
p382
I4
sS'577507211'
p383
I1
sS'\xb3\xe6\xb3'
p384
I26
sS'120'
p385
I11
sS'\xbe\xe9'
p386
I2
sS'122'
p387
I1
sS'123'
p388
I2
sS'6440'
p389
I1
sS'127'
p390
I3
sS'\xbe\xe4'
p391
I8
sS'\xbe\xe5'
p392
I79
sS'\xbe\xe6'
p393
I21
sS'\xbe\xe7'
p394
I47
sS'qq'
p395
I3
sS'601020'
p396
I1
sS'6809'
p397
I1
sS'74290737'
p398
I1
sS'7444'
p399
I2
sS'\xe6\xb3\xaa'
p400
I1
sS'5616'
p401
I1
sS'5617'
p402
I1
sS'7151'
p403
I1
sS'____________________'
p404
I1
sS'130'
p405
I5
sS'8783'
p406
I1
sS'4972'
p407
I1
sS'15359671'
p408
I1
sS'6709'
p409
I1
sS'1921'
p410
I1
sS'\xe9\xba'
p411
I7
sS'sei'
p412
I1
sS'\xbd\xe6\xb5'
p413
I1
sS'02'
p414
I5
sS'weibo'
p415
I6
sS'00'
p416
I3
sS'\xbd\xe8\xbd'
p417
I8
sS'06'
p418
I2
sS'07'
p419
I28
sS'08'
p420
I2
sS'09'
p421
I2
sS'46605047'
p422
I1
sS'3'
I4
sS'\xe8\xbd\xbd\xe5'
p423
I1
sS'92631'
p424
I2
sS'55428'
p425
I1
sS'\xe9\xb9'
p426
I2
sS'\xbd\xe6\xb3'
p427
I2
sS'\xe9\xbd'
p428
I4
sS'\xe9\xbc'
p429
I2
sS'\xe9\xbe'
p430
I16
sS'29811632'
p431
I1
sS'44400'
p432
I1
sS'\xbd\xe6\xba'
p433
I3
sS'\xe9\xb2'
p434
I4
sS'1998364'
p435
I2
sS'\xe9\xaa'
p436
I15
sS'39345679'
p437
I1
sS'\xd8'
I1
sS'23822478'
p438
I1
sS'7764402'
p439
I1
sS'1644'
p440
I1
sS'1643'
p441
I1
sS'\xe8'
I2292
sS's'
I2
sS'com'
p442
I2
sS'0130686'
p443
I2
sS'888888888888888888'
p444
I1
sS'59453'
p445
I1
sS'\xbc\xe5\xbe'
p446
I1
sS'29'
p447
I2
sS'\xe4\xbe'
p448
I17
sS'\xe4\xbc'
p449
I76
sS'\xe4\xbd'
p450
I209
sS'\xe4\xba'
p451
I248
sS'65'
p452
I3
sS'\xe4\xb9'
p453
I197
sS'68'
p454
I2
sS'250'
p455
I1
sS'255'
p456
I2
sS'ps'
p457
I1
sS'38018'
p458
I1
sS'\xe8\xbe\xb9'
p459
I5
sS'29868534'
p460
I1
sS'600459'
p461
I1
sS'\xaa\xe5\xbc'
p462
I5
sS'\xaa\xe5\xbd'
p463
I1
sS'3146'
p464
I1
sS'508'
p465
I1
sS'100135422'
p466
I1
sS'\xb9'
I122
sS'0670'
p467
I1
sS'502'
p468
I6
sS'503'
p469
I3
sS'500'
p470
I28
sS'501'
p471
I8
sS'4277'
p472
I1
sS'39'
p473
I1
sS'0008'
p474
I1
sS'57000'
p475
I1
sS'23940052'
p476
I1
sS'5555'
p477
I1
sS'11000'
p478
I1
sS'5130686'
p479
I2
sS'160'
p480
I3
sS'5650'
p481
I1
sS'\xe5\xbd\xaa'
p482
I1
sS'\xe9'
I1449
sS'\xba\xe6\xb5'
p483
I1
sS'n'
I1
sS'1457'
p484
I1
sS'11111111111111111111111'
p485
I1
sS'6191'
p486
I2
sS'2100'
p487
I1
sS'1511'
p488
I1
sS'22222222222222222222222'
p489
I1
sS'10000'
p490
I2
sS'155580644158qq'
p491
I1
sS'\xaa\xe8'
p492
I23
sS'\xaa\xe9'
p493
I11
sS'\xaa\xe4'
p494
I7
sS'\xaa\xe5'
p495
I26
sS'\xaa\xe6'
p496
I28
sS'\xaa\xe7'
p497
I13
sS'9222'
p498
I1
sS'2679462174'
p499
I1
sS'2432'
p500
I1
sS'537441666'
p501
I4
sS'\xe4\xba\xb2\xe4'
p502
I1
sS'\xe4\xba\xb2\xe6'
p503
I1
sS'\xe5\xb9\xb3\xe4'
p504
I5
sS'3183'
p505
I1
sS'9'
I1
sS'\xe5\xbc\xba\xe5\xba'
p506
I1
sS'144744'
p507
I3
sS'\xbe'
I236
sS'79509571'
p508
I1
sS'\xe4\xbd\xb3'
p509
I2
sS'51381706'
p510
I1
sS'mlgb'
p511
I1
sS'yy'
p512
I1
sS'\xb3\xe8\xb5'
p513
I1
sS'no'
p514
I1
sS'15478017'
p515
I1
sS'800'
p516
I1
sS'69300450'
p517
I1
sS'45'
p518
I2
sS'55103433'
p519
I1
sS'\xbd\xe5\xbe'
p520
I1
sS'328248'
p521
I1
sS'82329932'
p522
I2
sS'6128'
p523
I1
sS'97000'
p524
I1
sS'600125'
p525
I1
sS'633948'
p526
I1
sS'\xe5\xb9\xb3'
p527
I5
sS'289'
p528
I1
sS'\xe5\xb9\xb2'
p529
I1
sS'4'
I6
sS'3030'
p530
I6
sS'280'
p531
I1
sS'6163'
p532
I1
sS'7800'
p533
I1
sS'\xe7\xb3'
p534
I5
sS'\xe7\xb2'
p535
I2
sS'\xe7\xbe'
p536
I35
sS'\xe7\xbd'
p537
I24
sS'\xe7\xbc'
p538
I14
sS'b\xe8'
p539
I1
sS'\xe7\xba'
p540
I69
sS'\xcf'
I1
sS'\xe6\xb5\xaa\xe8'
p541
I2
sS'\xb9\xe4\xb9'
p542
I1
sS'\xe7\xaa'
p543
I11
sS'\xaa\xe4\xba\xba\xe8'
p544
I1
sS'60'
p545
I9
sS'\xe5\xb9\xba'
p546
I1
sS'\xe8\xbe\xbe\xe6'
p547
I2
sS'55'
p548
I2
sS'54'
p549
I1
sS'56'
p550
I1
sS'51'
p551
I1
sS'50'
p552
I22
sS'53'
p553
I1
sS'52'
p554
I3
sS'63'
p555
I1
sS't'
I2
sS'\xb3\xe4\xba\xba\xe4'
p556
I1
sS'\xb3\xe4\xba\xba\xe5'
p557
I1
sS'3001'
p558
I1
sS'2500'
p559
I3
sS'1415'
p560
I1
sS'3000'
p561
I1
sS'970442'
p562
I2
sS'www'
p563
I2
sS'8031'
p564
I2
sS'ole'
p565
I1
sS'kdj'
p566
I2
sS'200'
p567
I12
sS'\xb3\xe5\xbe'
p568
I1
sS'\xb3\xe5\xbd'
p569
I2
sS'67'
p570
I1
sS'64626321'
p571
I1
sS'3031'
p572
I1
sS'117'
p573
I1
sS'116'
p574
I3
sS'111'
p575
I2
sS'112'
p576
I3
sS'8135'
p577
I1
sS'5o2'
p578
I2
sS'5o1'
p579
I1
sS'6265'
p580
I1
sS'601018'
p581
I1
sS'002610'
p582
I1
sS'6511'
p583
I1
sS'qiang'
p584
I1
sS'57329932'
p585
I2
sS'300'
p586
I2
sS'4115'
p587
I1
sS'0909'
p588
I1
sS'\xe4'
I2134
sS'71237161'
p589
I1
sS'848'
p590
I1
sS'1151558'
p591
I1
sS'48084908490'
p592
I1
sS'\xb9\xe9'
p593
I2
sS'\xb9\xe8'
p594
I8
sS'33365'
p595
I1
sS'a\xe8'
p596
I7
sS'\xb9\xe5'
p597
I20
sS'\xb9\xe4'
p598
I4
sS'\xb9\xe7'
p599
I22
sS'\xb9\xe6'
p600
I18
sS'300500'
p601
I3
sS'300501'
p602
I15
sS'300507'
p603
I2
sS'5338'
p604
I1
sS'300508'
p605
I2
sS'\xe8\xbe\xbe'
p606
I13
sS'8030'
p607
I5
sS'9211'
p608
I1
sS'31556848'
p609
I1
sS'600163'
p610
I1
sS'600162'
p611
I1
sS'600161'
p612
I1
sS'600160'
p613
I1
sS'600166'
p614
I1
sS'600165'
p615
I1
sS'\xb5'
I69
sS'\xe7\xba\xb3\xe6'
p616
I1
sS'\xe7\xba\xb3\xe5'
p617
I1
sS'\xc5'
I1
sS'144665'
p618
I1
sS'\xbc\xe6\xbc'
p619
I1
sS'2698'
p620
I1
sS'163'
p621
I1
sS'\xe7\xb2\xbe\xe5\xbd'
p622
I1
sS'25672720'
p623
I2
sS'8688010'
p624
I1
sS'25672725'
p625
I1
sS'25388'
p626
I1
sS'\xe5'
I5004
sS'5607'
p627
I1
sS'2359'
p628
I1
sS'9854'
p629
I1
sS'z'
I3
sS'44058171'
p630
I1
sS'150'
p631
I10
sS'\xe4\xba\xba\xe8'
p632
I3
sS'600'
p633
I1
sS'1162'
p634
I1
sS'156'
p635
I1
sS'\xe4\xba\xba\xe4'
p636
I2
sS'\xe4\xba\xba\xe5'
p637
I2
sS'\xe4\xba\xba\xe6'
p638
I1
sS'\xe4\xba\xba\xe7'
p639
I3
sS'1200'
p640
I1
sS'7039'
p641
I1
sS'\xcd\xbc'
p642
I3
sS'8273'
p643
I1
sS'\xe7\xb2\xbe\xe5'
p644
I1
sS'\xaa\xe4\xbd'
p645
I6
sS'\xe7\xb2\xbe\xe7'
p646
I1
sS'81'
p647
I3
sS'1278503'
p648
I1
sS'49'
p649
I1
sS'46'
p650
I1
sS'47'
p651
I3
sS'44'
p652
I2
sS'\xaa'
I182
sS'42'
p653
I1
sS'40'
p654
I3
sS'41'
p655
I1
sS'\xb3\xe9'
p656
I7
sS'\xb3\xe8'
p657
I43
sS'5'
I3
sS'\xba'
I338
sS'\xb3\xe7'
p658
I7
sS'\xb3\xe6'
p659
I20
sS'\xb3\xe5'
p660
I31
sS'\xb3\xe4'
p661
I3
sS'2370842'
p662
I1
sS'460'
p663
I1
sS'\xbc\xe6'
p664
I2
sS'\xbc\xe7'
p665
I9
sS'\xbc\xe4'
p666
I2
sS'\xbc\xe5'
p667
I10
sS'07329932'
p668
I2
sS'9196'
p669
I1
sS'571751'
p670
I1
sS'\xe8\xbd\xbd'
p671
I4
sS'gaola'
p672
I1
sS'8000'
p673
I2
sS'\xbc\xe8'
p674
I5
sS'\xbc\xe9'
p675
I3
sS'99'
p676
I5
sS'7008'
p677
I1
sS'31416703'
p678
I1
sS'13000'
p679
I2
sS'2000'
p680
I2
sS'4416'
p681
I1
sS'62956'
p682
I1
sS'12'
p683
I6
sS'300132'
p684
I1
sS'105265'
p685
I1
ssS'_mapping'
p686
(dp687
g18
I102
sg19
I510
sg20
I20
sg21
I188
sg22
I38
sg23
I200
sg24
I17
sg25
I417
sg26
I671
sg27
I344
sg28
I285
sg29
I687
sg30
I529
sg31
I357
sg32
I232
sg33
I480
sg34
I469
sg35
I532
sS'0'
I89
sg36
I533
sg37
I144
sg38
I402
sg39
I589
sg40
I305
sg41
I463
sg42
I578
sg43
I251
sg44
I248
sg45
I326
sg46
I379
sg47
I328
sg48
I329
sg49
I327
sg50
I496
sg51
I331
sg52
I332
sg53
I239
sg54
I524
sg55
I434
sg56
I201
sg57
I27
sg58
I78
sg59
I254
sg60
I234
sg61
I688
sg62
I137
sg63
I391
sg64
I485
sg65
I323
sg66
I697
sg67
I576
sg68
I539
sg69
I289
sg70
I398
sg71
I245
sg72
I425
sg73
I62
sg74
I405
sg75
I431
sg76
I420
sg77
I602
sg78
I520
sg79
I461
sg80
I253
sg81
I113
sg82
I542
sg83
I572
sg84
I215
sg85
I462
sg86
I672
sS'\xd0'
I516
sg87
I694
sg88
I243
sg89
I692
sg90
I167
sg91
I91
sg92
I191
sg93
I689
sg94
I119
sg95
I147
sg96
I212
sg97
I298
sg98
I44
sg99
I179
sg100
I629
sg101
I90
sg102
I477
sg103
I541
sg104
I499
sg105
I667
sg106
I564
sg107
I679
sg108
I152
sg109
I118
sg110
I538
sg111
I506
sg112
I701
sg113
I315
sg114
I452
sg115
I706
sg116
I597
sg117
I448
sS'6'
I43
sg118
I11
sg119
I10
sg120
I553
sg121
I42
sg122
I26
sg123
I41
sg124
I28
sg125
I501
sg126
I486
sg127
I141
sg128
I281
sg129
I544
sg130
I193
sg131
I206
sg132
I194
sg133
I76
sg134
I192
sg135
I269
sg136
I367
sg137
I366
sg138
I428
sg139
I444
sg140
I605
sS'v'
I58
sg141
I652
sg142
I558
sg143
I613
sg144
I534
sg145
I476
sg146
I467
sg147
I442
sg148
I321
sg149
I93
sg150
I164
sg151
I380
sg152
I639
sg153
I464
sg154
I654
sS'1'
I40
sg155
I600
sg156
I498
sg157
I685
sS'\xcb'
I311
sg158
I378
sg159
I135
sg160
I182
sg161
I610
sg162
I7
sg163
I317
sg164
I140
sg165
I279
sg166
I73
sg167
I39
sg168
I35
sg169
I45
sg170
I46
sg171
I647
sg172
I149
sg173
I190
sg174
I165
sS'\xe6'
I2
sg175
I310
sg176
I565
sg177
I368
sg178
I658
sg179
I531
sg180
I413
sg181
I475
sg182
I503
sg183
I537
sg184
I284
sg185
I424
sg186
I100
sg187
I241
sg188
I175
sg189
I132
sg190
I156
sg191
I293
sg192
I98
sg193
I397
sg194
I154
sg195
I61
sg196
I471
sg197
I184
sg198
I372
sg199
I381
sg200
I24
sg201
I322
sg202
I549
sg203
I177
sg204
I404
sg205
I582
sg206
I474
sg207
I270
sg208
I160
sg209
I221
sg210
I308
sg211
I320
sg212
I252
sg213
I236
sg214
I266
sg215
I65
sg216
I594
sg217
I395
sg218
I577
sg219
I235
sg220
I438
sg221
I547
sg222
I614
sg223
I588
sg224
I660
sg225
I472
sg226
I163
sg227
I675
sg228
I555
sg229
I272
sS'\xe7'
I4
sg230
I664
sg231
I259
sg232
I691
sg233
I219
sg234
I385
sg235
I550
sg236
I495
sg237
I409
sg238
I603
sg239
I518
sg240
I455
sg241
I414
sg242
I419
sg243
I436
sg244
I624
sg245
I168
sg246
I394
sg247
I656
sg248
I127
sg249
I205
sg250
I128
sg251
I83
sg252
I316
sg253
I314
sg254
I369
sg255
I214
sg256
I412
sg257
I482
sg258
I265
sS'\xc6'
I408
sg259
I643
sS'7'
I30
sg284
I644
sS'\xbc'
I51
sg260
I392
sg261
I481
sg262
I653
sg263
I418
sg264
I500
sg265
I620
sg266
I457
sg267
I139
sg268
I373
sg269
I525
sg270
I421
sg271
I356
sg272
I508
sg273
I530
sg274
I79
sg275
I109
sg276
I551
sg277
I261
sg278
I145
sg279
I487
sg280
I505
sg281
I415
sg282
I680
sg283
I690
sg12
I0
sg285
I552
sg286
I86
sg287
I702
sg288
I608
sg289
I611
sg290
I111
sS'2'
I635
sg291
I521
sS'\xbd'
I19
sg292
I473
sS'\xcd'
I312
sg293
I579
sg294
I698
sg295
I601
sg296
I427
sg297
I513
sg298
I628
sg299
I585
sg300
I229
sg301
I641
sg302
I75
sS'b'
I280
sg303
I31
sg304
I370
sg305
I198
sg306
I34
sg307
I255
sg308
I199
sg309
I433
sg310
I523
sg311
I426
sg312
I183
sg313
I230
sg314
I50
sg315
I512
sg316
I517
sg317
I375
sg318
I77
sg319
I340
sg320
I36
sg321
I101
sg322
I12
sg323
I631
sg324
I220
sg325
I115
sg326
I49
sg327
I213
sg328
I288
sg329
I488
sg330
I105
sg331
I670
sg332
I318
sg333
I606
sg334
I543
sg335
I456
sS'\xb2'
I81
sg336
I622
sg337
I264
sg338
I432
sg339
I707
sg340
I227
sg341
I225
sg342
I339
sg343
I246
sg344
I406
sg345
I123
sg346
I674
sg347
I226
sg348
I169
sS'\xe2'
I52
sg349
I618
sg350
I621
sg351
I623
sg352
I458
sg353
I299
sg354
I313
sg355
I242
sg356
I346
sg357
I699
sg358
I581
sg359
I465
sg360
I303
sg361
I361
sg362
I598
sg363
I655
sg364
I646
sg365
I677
sg366
I130
sg367
I189
sg368
I637
sg369
I351
sg370
I223
sg371
I411
sg372
I138
sg373
I507
sS'\xb3'
I9
sg374
I161
sg375
I203
sg376
I640
sg377
I54
sS'8'
I99
sg378
I185
sg379
I48
sg380
I595
sg381
I704
sg382
I676
sg383
I666
sg384
I124
sg385
I70
sg386
I291
sg387
I250
sg388
I122
sg389
I451
sg390
I71
sg391
I178
sg392
I22
sg393
I217
sg394
I53
sg395
I665
sg396
I106
sg397
I563
sg398
I626
sg399
I478
sg400
I218
sg401
I386
sg402
I700
sg403
I556
sg404
I237
sg405
I257
sg406
I616
sg407
I479
sg408
I491
sg409
I497
sg410
I562
sg411
I399
sg412
I306
sg413
I663
sg414
I207
sg415
I696
sg416
I69
sg417
I325
sg418
I197
sg419
I66
sg420
I228
sg421
I371
sg422
I619
sS'3'
I211
sg423
I294
sg424
I574
sg425
I522
sg426
I645
sg427
I343
sg428
I157
sg429
I304
sg430
I148
sg431
I466
sg432
I231
sg433
I330
sg434
I348
sg435
I592
sg436
I166
sg437
I560
sS'\xd8'
I410
sg438
I569
sg439
I632
sg440
I490
sg441
I489
sS'\xe8'
I1
sS's'
I233
sg442
I695
sg443
I437
sg444
I416
sg445
I353
sg446
I278
sg447
I377
sg448
I96
sg449
I136
sg450
I18
sg451
I56
sg452
I224
sg453
I23
sg454
I172
sg455
I296
sg456
I88
sg457
I683
sg458
I422
sg459
I258
sg460
I540
sg461
I186
sg462
I244
sg463
I309
sg464
I493
sg465
I87
sg466
I509
sS'\xb9'
I15
sg467
I593
sg468
I121
sg469
I204
sg470
I143
sg471
I120
sg472
I612
sg473
I669
sg474
I515
sg475
I347
sg476
I615
sg477
I526
sg478
I636
sg479
I439
sg480
I187
sg481
I453
sg482
I85
sS'\xe9'
I5
sg483
I283
sS'n'
I300
sg484
I494
sg485
I587
sg486
I511
sg487
I208
sg488
I545
sg489
I403
sg490
I383
sg491
I661
sg492
I125
sg493
I60
sg494
I37
sg495
I95
sg496
I63
sg497
I110
sg498
I584
sg499
I591
sg500
I705
sg501
I662
sg502
I519
sg503
I222
sg504
I290
sg505
I319
sS'9'
I349
sg506
I174
sg507
I566
sS'\xbe'
I21
sg508
I590
sg509
I274
sg510
I528
sg511
I400
sg512
I681
sg513
I342
sg514
I668
sg515
I634
sg516
I650
sg517
I504
sg518
I292
sg519
I617
sg520
I468
sg521
I548
sg522
I440
sg523
I568
sg524
I484
sg525
I170
sg526
I625
sg527
I630
sg528
I362
sg529
I651
sS'4'
I92
sg530
I430
sg531
I275
sg532
I470
sg533
I126
sg534
I267
sg535
I263
sg536
I57
sg537
I97
sg538
I153
sg539
I682
sg540
I16
sS'\xcf'
I276
sg541
I307
sg542
I684
sg543
I107
sg544
I393
sg545
I72
sg546
I282
sg547
I673
sg548
I240
sg549
I686
sg550
I703
sg551
I287
sg552
I103
sg553
I390
sg554
I359
sg555
I247
sS't'
I376
sg556
I657
sg557
I260
sg558
I460
sg559
I384
sg560
I580
sg561
I659
sg562
I435
sg563
I693
sg564
I450
sg565
I155
sg566
I104
sg567
I80
sg568
I358
sg569
I25
sg570
I365
sg571
I642
sg572
I449
sg573
I133
sg574
I112
sg575
I401
sg576
I68
sg577
I459
sg578
I181
sg579
I180
sg580
I599
sg581
I129
sg582
I249
sg583
I546
sg584
I286
sg585
I443
sg586
I158
sg587
I557
sg588
I559
sS'\xe4'
I3
sg589
I445
sg590
I363
sg591
I638
sg592
I446
sg593
I423
sg594
I47
sg595
I447
sg596
I116
sg597
I82
sg598
I238
sg599
I14
sg600
I59
sg601
I142
sg602
I64
sg603
I210
sg604
I387
sg605
I151
sg606
I74
sg607
I429
sg608
I583
sg609
I604
sg610
I336
sg611
I335
sg612
I334
sg613
I333
sg614
I338
sg615
I337
sS'\xb5'
I55
sg616
I271
sg617
I117
sS'\xc5'
I84
sg618
I567
sg619
I360
sg620
I648
sg621
I364
sg622
I302
sg623
I535
sg624
I633
sg625
I536
sg626
I627
sS'\xe5'
I6
sg627
I389
sg628
I575
sg629
I527
sS'z'
I256
sg630
I573
sg631
I108
sg632
I195
sg633
I374
sg634
I94
sg635
I324
sg636
I262
sg637
I114
sg638
I345
sg639
I341
sg640
I295
sg641
I609
sg642
I407
sg643
I388
sg644
I273
sg645
I196
sg646
I33
sg647
I134
sg648
I554
sg649
I396
sg650
I355
sg651
I209
sg652
I571
sS'\xaa'
I29
sg653
I350
sg654
I216
sg655
I354
sg656
I173
sg657
I162
sS'5'
I277
sS'\xba'
I13
sg658
I268
sg659
I8
sg660
I171
sg661
I32
sg662
I596
sg663
I352
sg664
I301
sg665
I176
sg666
I146
sg667
I131
sg668
I441
sg669
I561
sg670
I483
sg671
I678
sg672
I492
sg673
I159
sg674
I202
sg675
I297
sg676
I570
sg677
I454
sg678
I586
sg679
I514
sg680
I607
sg681
I649
sg682
I502
sg683
I67
sg684
I150
sg685
I382
ssS'_reverse_mapping'
p688
(lp689
g12
aS'\xe8'
aS'\xe6'
aS'\xe4'
aS'\xe7'
aS'\xe9'
aS'\xe5'
ag162
ag659
aS'\xb3'
ag119
ag118
ag322
aS'\xba'
ag599
aS'\xb9'
ag540
ag24
ag450
aS'\xbd'
ag20
aS'\xbe'
ag392
ag453
ag200
ag569
ag122
ag57
ag124
aS'\xaa'
aS'7'
ag303
ag661
ag646
ag306
ag168
ag320
ag494
ag22
ag167
aS'1'
ag123
ag121
aS'6'
ag98
ag169
ag170
ag594
ag379
ag326
ag314
aS'\xbc'
aS'\xe2'
ag394
ag377
aS'\xb5'
ag451
ag536
aS'v'
ag600
ag493
ag195
ag73
ag496
ag602
ag215
ag419
ag683
ag576
ag416
ag385
ag390
ag545
ag166
ag606
ag302
ag133
ag318
ag58
ag274
ag567
aS'\xb2'
ag597
ag251
aS'\xc5'
ag482
ag286
ag465
ag456
aS'0'
ag101
ag91
aS'4'
ag149
ag634
ag495
ag448
ag537
ag192
aS'8'
ag186
ag321
ag18
ag552
ag566
ag330
ag396
ag543
ag631
ag275
ag497
ag290
ag574
ag81
ag637
ag325
ag596
ag617
ag109
ag94
ag471
ag468
ag388
ag345
ag384
ag492
ag533
ag248
ag250
ag581
ag366
ag667
ag189
ag573
ag647
ag159
ag449
ag62
ag372
ag267
ag164
ag127
ag601
ag470
ag37
ag278
ag666
ag95
ag430
ag172
ag684
ag605
ag108
ag538
ag194
ag565
ag190
ag428
ag586
ag673
ag208
ag374
ag657
ag226
ag150
ag174
ag436
ag90
ag245
ag348
ag525
ag660
ag454
ag656
ag506
ag188
ag665
ag203
ag391
ag99
ag579
ag578
ag160
ag312
ag197
ag378
ag461
ag480
ag21
ag367
ag173
ag92
ag134
ag130
ag132
ag632
ag645
ag418
ag305
ag308
ag23
ag56
ag674
ag375
ag469
ag249
ag131
ag414
ag487
ag651
ag603
aS'3'
ag96
ag327
ag255
ag84
ag654
ag393
ag400
ag233
ag324
ag209
ag503
ag370
ag452
ag341
ag347
ag340
ag420
ag300
ag313
ag432
ag32
aS's'
ag60
ag219
ag213
ag404
ag598
ag53
ag548
ag187
ag355
ag88
ag462
ag71
ag343
ag555
ag44
ag582
ag387
ag43
ag212
ag80
ag59
ag307
aS'z'
ag405
ag459
ag231
ag557
ag277
ag636
ag535
ag337
ag258
ag214
ag534
ag658
ag135
ag207
ag616
ag229
ag644
ag509
ag531
aS'\xcf'
aS'5'
ag446
ag165
aS'b'
ag128
ag546
ag483
ag184
ag28
ag584
ag551
ag328
ag69
ag504
ag386
ag518
ag191
ag423
ag640
ag455
ag675
ag97
ag353
aS'n'
ag664
ag622
ag360
ag429
ag40
ag412
ag541
ag210
ag463
ag175
aS'\xcb'
aS'\xcd'
ag354
ag253
ag113
ag252
ag163
ag332
ag505
ag211
ag148
ag201
ag65
ag635
ag417
ag45
ag49
ag47
ag48
ag433
ag51
ag52
ag613
ag612
ag611
ag610
ag615
ag614
ag342
ag319
ag639
ag513
ag427
ag27
ag638
ag356
ag475
ag434
aS'9'
ag653
ag369
ag663
ag445
ag655
ag650
ag271
ag31
ag568
ag554
ag619
ag361
ag528
ag590
ag621
ag570
ag137
ag136
ag177
ag254
ag304
ag421
ag198
ag268
ag633
ag317
aS't'
ag447
ag158
ag46
ag151
ag199
ag685
ag490
ag559
ag234
ag401
ag604
ag643
ag627
ag553
ag63
ag260
ag544
ag246
ag217
ag649
ag193
ag70
ag411
ag511
ag575
ag38
ag489
ag204
ag74
ag344
ag642
aS'\xc6'
ag237
aS'\xd8'
ag371
ag256
ag180
ag241
ag281
ag444
ag25
ag263
ag242
ag76
ag270
ag458
ag593
ag185
ag72
ag311
ag296
ag138
ag607
ag530
ag75
ag338
ag309
ag55
ag562
ag243
ag443
ag220
ag479
ag522
ag668
ag147
ag585
ag139
ag589
ag592
ag595
ag117
ag572
ag564
ag389
ag114
ag481
ag677
ag240
ag335
ag266
ag352
ag577
ag558
ag79
ag85
ag41
ag153
ag359
ag431
ag146
ag520
ag34
ag532
ag196
ag225
ag292
ag206
ag181
ag145
ag102
ag399
ag407
ag33
ag261
ag257
ag670
ag524
ag64
ag126
ag279
ag329
ag441
ag440
ag408
ag672
ag464
ag484
ag236
ag50
ag409
ag156
ag104
ag264
ag125
ag682
ag182
ag517
ag280
ag111
ag373
ag272
ag466
ag19
ag486
ag315
ag297
ag679
ag474
aS'\xd0'
ag316
ag239
ag502
ag78
ag291
ag425
ag310
ag54
ag269
ag477
ag629
ag510
ag30
ag273
ag179
ag35
ag36
ag144
ag623
ag625
ag183
ag110
ag68
ag460
ag103
ag82
ag334
ag129
ag488
ag583
ag221
ag521
ag202
ag235
ag276
ag285
ag120
ag648
ag228
ag403
ag587
ag142
ag588
ag437
ag669
ag410
ag397
ag106
ag176
ag507
ag618
ag523
ag438
ag676
ag652
ag83
ag630
ag424
ag628
ag67
ag218
ag42
ag293
ag560
ag358
ag205
ag608
ag498
ag299
ag678
ag485
ag223
ag39
ag508
ag499
ag435
ag467
ag216
ag380
ag662
ag116
ag362
ag580
ag155
ag295
ag77
ag238
ag609
ag140
ag333
ag680
ag288
ag641
ag161
ag289
ag472
ag143
ag222
ag476
ag406
ag519
ag349
ag422
ag265
ag350
ag336
ag351
ag244
ag526
ag398
ag626
ag298
ag100
ag527
ag323
ag439
ag624
ag515
aS'2'
ag478
ag368
ag591
ag152
ag376
ag301
ag571
ag259
ag284
ag426
ag364
ag171
ag620
ag681
ag516
ag529
ag141
ag262
ag154
ag363
ag247
ag556
ag178
ag561
ag224
ag491
ag501
ag413
ag230
ag395
ag383
ag105
ag514
ag473
ag331
ag26
ag86
ag547
ag346
ag227
ag382
ag365
ag671
ag107
ag282
ag512
ag539
ag457
ag542
ag157
ag549
ag29
ag61
ag93
ag283
ag232
ag89
ag563
ag87
ag442
ag415
ag66
ag294
ag357
ag402
ag112
ag287
ag550
ag381
ag500
ag115
ag339
asbsS'max_document_length'
p690
I212
sS'_tokenizer'
p691
ctensorflow.contrib.learn.python.learn.preprocessing.text
tokenizer
p692
sS'min_frequency'
p693
I0
sb.